target datalayout = "e-m:e-p270:32:32-p271:32:32-p272:64:64-i64:64-i128:128-f80:128-n8:16:32:64-S128"
target triple = "x86_64-pc-linux-gnu"

%class.RadianceScalingRendererPlugin = type { %class.QObject, %class.RenderPlugin.base, i8, %class.QList, ptr, ptr, ptr, ptr, ptr, ptr, ptr, ptr, ptr, ptr, i32, i32, %class.MeshLabPlugin, %class.MeshLabPluginLogger }
%class.QObject = type { ptr, %class.QScopedPointer }
%class.QScopedPointer = type { ptr }
%class.RenderPlugin.base = type { ptr }
%class.QList = type { %union.anon }
%union.anon = type { %struct.QListData }
%struct.QListData = type { ptr }
%class.MeshLabPlugin = type { ptr, i8, %class.QFileInfo }
%class.QFileInfo = type { %class.QSharedDataPointer }
%class.QSharedDataPointer = type { ptr }
%class.MeshLabPluginLogger = type { ptr, ptr }

; Function Attrs: mustprogress nounwind uwtable
define void @_ZN29RadianceScalingRendererPlugin12cleanShadersEv(ptr noundef nonnull align 8 dereferenceable(128) %0) #4 align 2 {
  %2 = alloca ptr, align 8
  store ptr %0, ptr %2, align 8
  %3 = load ptr, ptr %2, align 8
  %4 = getelementptr inbounds %class.RadianceScalingRendererPlugin, ptr %3, i32 0, i32 6
  %5 = load ptr, ptr %4, align 8
  %6 = icmp ne ptr %5, null
  br i1 %6, label %7, label %20

7:                                                ; preds = %1
  %8 = getelementptr inbounds %class.RadianceScalingRendererPlugin, ptr %3, i32 0, i32 6
  %9 = load ptr, ptr %8, align 8
  %10 = icmp eq ptr %9, null
  br i1 %10, label %12, label %11

11:                                               ; preds = %7
  call void @_ZN10GPUProgramD1Ev(ptr noundef nonnull align 8 dereferenceable(188) %9) #3
  call void @_ZdlPv(ptr noundef %9) #16
  br label %12

12:                                               ; preds = %11, %7
  %13 = getelementptr inbounds %class.RadianceScalingRendererPlugin, ptr %3, i32 0, i32 7
  %14 = load ptr, ptr %13, align 8
  %15 = icmp eq ptr %14, null
  br i1 %15, label %17, label %16

16:                                               ; preds = %12
  call void @_ZN10GPUProgramD1Ev(ptr noundef nonnull align 8 dereferenceable(188) %14) #3
  call void @_ZdlPv(ptr noundef %14) #16
  br label %17

17:                                               ; preds = %16, %12
  %18 = getelementptr inbounds %class.RadianceScalingRendererPlugin, ptr %3, i32 0, i32 6
  store ptr null, ptr %18, align 8
  %19 = getelementptr inbounds %class.RadianceScalingRendererPlugin, ptr %3, i32 0, i32 7
  store ptr null, ptr %19, align 8
  br label %20

20:                                               ; preds = %17, %1
  ret void
}