; Function Attrs: mustprogress nounwind uwtable
define void @_ZN29RadianceScalingRendererPlugin12cleanShadersEv(ptr nocapture noundef nonnull align 8 dereferenceable(128) %0) local_unnamed_addr #4 align 2 {
  %2 = getelementptr inbounds i8, ptr %0, i64 56
  %3 = load ptr, ptr %2, align 8
  %.not = icmp eq ptr %3, null
  br i1 %.not, label %10, label %4

4:                                                ; preds = %1
  tail call void @_ZN10GPUProgramD1Ev(ptr noundef nonnull align 8 dereferenceable(188) %3) #17
  tail call void @_ZdlPv(ptr noundef nonnull %3) #16
  %5 = getelementptr inbounds i8, ptr %0, i64 64
  %6 = load ptr, ptr %5, align 8
  %7 = icmp eq ptr %6, null
  br i1 %7, label %9, label %8

8:                                                ; preds = %4
  tail call void @_ZN10GPUProgramD1Ev(ptr noundef nonnull align 8 dereferenceable(188) %6) #17
  tail call void @_ZdlPv(ptr noundef nonnull %6) #16
  br label %9

9:                                                ; preds = %8, %4
  tail call void @llvm.memset.p0.i64(ptr noundef nonnull align 8 dereferenceable(16) %2, i8 0, i64 16, i1 false)
  br label %10

10:                                               ; preds = %9, %1
  ret void
}